; Function Attrs: null_pointer_is_valid sspstrong uwtable
define internal i32 @dissect_pmip6_opt_ts(ptr noundef %0, ptr noundef %1, ptr noundef %2, ptr readnone captures(none) %3) #0 {
  %5 = alloca ptr, align 8
  %6 = alloca ptr, align 8
  call void @llvm.lifetime.start.p0(i64 8, ptr nonnull %5) #5
  %7 = tail call i32 @tvb_reported_length(ptr noundef %0)
  %8 = add i32 %7, -2
  call void @llvm.lifetime.start.p0(i64 8, ptr nonnull %6) #5
  %9 = load i32, ptr @proto_mip6_option_ts, align 4
  %10 = load i32, ptr @ett_pmip6_opt_ts, align 4
  %11 = call fastcc ptr @mip6_fixed_option_header(ptr noundef %2, ptr noundef %1, ptr noundef %0, i32 noundef %9, i32 noundef %10, ptr noundef nonnull %5, i32 noundef %8, i32 noundef 8)
  %12 = load i32, ptr @hf_pmip6_timestamp, align 4
  %13 = getelementptr inbounds nuw i8, ptr %1, i64 408
  %14 = load ptr, ptr %13, align 8
  %15 = call ptr @proto_tree_add_item_ret_time_string(ptr noundef %11, i32 noundef %12, ptr noundef %0, i32 noundef 2, i32 noundef 8, i32 noundef 36, ptr noundef %14, ptr noundef nonnull %6)
  %16 = load ptr, ptr %5, align 8
  %17 = load ptr, ptr %6, align 8
  call void (ptr, ptr, ...) @proto_item_append_text(ptr noundef %16, ptr noundef nonnull @.str.755, ptr noundef %17)
  %18 = call i32 @tvb_captured_length(ptr noundef %0)
  call void @llvm.lifetime.end.p0(i64 8, ptr nonnull %6) #5
  call void @llvm.lifetime.end.p0(i64 8, ptr nonnull %5) #5
  ret i32 %18
}